target datalayout = "e-m:e-p270:32:32-p271:32:32-p272:64:64-i64:64-i128:128-f80:128-n8:16:32:64-S128"
target triple = "x86_64-unknown-linux-gnu"

%struct.SHA1_CTX = type { [5 x i32], [2 x i32], [64 x i8] }

; Function Attrs: nounwind uwtable
define dso_local void @xorDigest(ptr noundef %digest, ptr noundef %ptr, i64 noundef %len) #0 {
entry:
  %digest.addr = alloca ptr, align 8
  %ptr.addr = alloca ptr, align 8
  %len.addr = alloca i64, align 8
  %ctx = alloca %struct.SHA1_CTX, align 4
  %hash = alloca [20 x i8], align 16
  %j = alloca i32, align 4
  store ptr %digest, ptr %digest.addr, align 8
  store ptr %ptr, ptr %ptr.addr, align 8
  store i64 %len, ptr %len.addr, align 8
  call void @SHA1Init(ptr noundef %ctx)
  %0 = load ptr, ptr %ptr.addr, align 8
  %1 = load i64, ptr %len.addr, align 8
  %conv = trunc i64 %1 to i32
  call void @SHA1Update(ptr noundef %ctx, ptr noundef %0, i32 noundef %conv)
  %arraydecay = getelementptr inbounds [20 x i8], ptr %hash, i64 0, i64 0
  call void @SHA1Final(ptr noundef %arraydecay, ptr noundef %ctx)
  store i32 0, ptr %j, align 4
  br label %for.cond

for.cond:                                         ; preds = %for.inc, %entry
  %2 = load i32, ptr %j, align 4
  %cmp = icmp slt i32 %2, 20
  br i1 %cmp, label %for.body, label %for.end

for.body:                                         ; preds = %for.cond
  %3 = load i32, ptr %j, align 4
  %idxprom = sext i32 %3 to i64
  %arrayidx = getelementptr inbounds [20 x i8], ptr %hash, i64 0, i64 %idxprom
  %4 = load i8, ptr %arrayidx, align 1
  %conv2 = zext i8 %4 to i32
  %5 = load ptr, ptr %digest.addr, align 8
  %6 = load i32, ptr %j, align 4
  %idxprom3 = sext i32 %6 to i64
  %arrayidx4 = getelementptr inbounds i8, ptr %5, i64 %idxprom3
  %7 = load i8, ptr %arrayidx4, align 1
  %conv5 = zext i8 %7 to i32
  %xor = xor i32 %conv5, %conv2
  %conv6 = trunc i32 %xor to i8
  store i8 %conv6, ptr %arrayidx4, align 1
  br label %for.inc

for.inc:                                          ; preds = %for.body
  %8 = load i32, ptr %j, align 4
  %inc = add nsw i32 %8, 1
  store i32 %inc, ptr %j, align 4
  br label %for.cond, !llvm.loop !5

for.end:                                          ; preds = %for.cond
  ret void
}

; Function Attrs: nounwind uwtable
define dso_local void @mixDigest(ptr noundef %digest, ptr noundef %ptr, i64 noundef %len) #0 {
entry:
  %digest.addr = alloca ptr, align 8
  %ptr.addr = alloca ptr, align 8
  %len.addr = alloca i64, align 8
  %ctx = alloca %struct.SHA1_CTX, align 4
  store ptr %digest, ptr %digest.addr, align 8
  store ptr %ptr, ptr %ptr.addr, align 8
  store i64 %len, ptr %len.addr, align 8
  %0 = load ptr, ptr %digest.addr, align 8
  %1 = load ptr, ptr %ptr.addr, align 8
  %2 = load i64, ptr %len.addr, align 8
  call void @xorDigest(ptr noundef %0, ptr noundef %1, i64 noundef %2)
  call void @SHA1Init(ptr noundef %ctx)
  %3 = load ptr, ptr %digest.addr, align 8
  call void @SHA1Update(ptr noundef %ctx, ptr noundef %3, i32 noundef 20)
  %4 = load ptr, ptr %digest.addr, align 8
  call void @SHA1Final(ptr noundef %4, ptr noundef %ctx)
  ret void
}