; Function Attrs: nounwind uwtable
define dso_local void @mixDigest(ptr noundef %digest, ptr noundef %ptr, i64 noundef %len) local_unnamed_addr #0 {
entry:
  %ctx.i = alloca %struct.SHA1_CTX, align 4
  %hash.i = alloca [20 x i8], align 16
  %ctx = alloca %struct.SHA1_CTX, align 4
  call void @llvm.lifetime.start.p0(i64 92, ptr nonnull %ctx.i)
  call void @llvm.lifetime.start.p0(i64 20, ptr nonnull %hash.i)
  call void @SHA1Init(ptr noundef nonnull %ctx.i) #22
  %conv.i = trunc i64 %len to i32
  call void @SHA1Update(ptr noundef nonnull %ctx.i, ptr noundef %ptr, i32 noundef %conv.i) #22
  call void @SHA1Final(ptr noundef nonnull %hash.i, ptr noundef nonnull %ctx.i) #22
  br label %for.body.i

for.body.i:                                       ; preds = %for.body.i, %entry
  %indvars.iv.i = phi i64 [ 0, %entry ], [ %indvars.iv.next.i, %for.body.i ]
  %arrayidx.i = getelementptr inbounds [20 x i8], ptr %hash.i, i64 0, i64 %indvars.iv.i
  %0 = load i8, ptr %arrayidx.i, align 1
  %arrayidx4.i = getelementptr inbounds i8, ptr %digest, i64 %indvars.iv.i
  %1 = load i8, ptr %arrayidx4.i, align 1
  %xor4.i = xor i8 %1, %0
  store i8 %xor4.i, ptr %arrayidx4.i, align 1
  %indvars.iv.next.i = add nuw nsw i64 %indvars.iv.i, 1
  %exitcond.not.i = icmp eq i64 %indvars.iv.next.i, 20
  br i1 %exitcond.not.i, label %xorDigest.exit, label %for.body.i, !llvm.loop !5

xorDigest.exit:                                   ; preds = %for.body.i
  call void @llvm.lifetime.end.p0(i64 92, ptr nonnull %ctx.i)
  call void @llvm.lifetime.end.p0(i64 20, ptr nonnull %hash.i)
  call void @SHA1Init(ptr noundef nonnull %ctx) #22
  call void @SHA1Update(ptr noundef nonnull %ctx, ptr noundef nonnull %digest, i32 noundef 20) #22
  call void @SHA1Final(ptr noundef nonnull %digest, ptr noundef nonnull %ctx) #22
  ret void
}